; Function Attrs: mustprogress nofree norecurse nosync nounwind willreturn memory(argmem: write) uwtable
define void @_ZN5faiss17IndexSplitVectorsC2Elb(ptr nocapture noundef nonnull writeonly align 8 dereferenceable(72) %0, i64 noundef %1, i1 noundef zeroext %2) unnamed_addr #5 align 2 {
  %4 = zext i1 %2 to i8
  %5 = getelementptr inbounds i8, ptr %0, i64 8
  %6 = trunc i64 %1 to i32
  store i32 %6, ptr %5, align 8
  %7 = getelementptr inbounds i8, ptr %0, i64 16
  store i64 0, ptr %7, align 8
  %8 = getelementptr inbounds i8, ptr %0, i64 24
  store i8 0, ptr %8, align 8
  %9 = getelementptr inbounds i8, ptr %0, i64 25
  store i8 1, ptr %9, align 1
  %10 = getelementptr inbounds i8, ptr %0, i64 28
  store i32 1, ptr %10, align 4
  %11 = getelementptr inbounds i8, ptr %0, i64 32
  store float 0.000000e+00, ptr %11, align 8
  store ptr getelementptr inbounds ({ [24 x ptr] }, ptr @_ZTVN5faiss17IndexSplitVectorsE, i64 0, i32 0, i64 2), ptr %0, align 8
  %12 = getelementptr inbounds i8, ptr %0, i64 36
  store i8 0, ptr %12, align 4
  %13 = getelementptr inbounds i8, ptr %0, i64 37
  store i8 %4, ptr %13, align 1
  %14 = getelementptr inbounds i8, ptr %0, i64 40
  tail call void @llvm.memset.p0.i64(ptr noundef nonnull align 8 dereferenceable(32) %14, i8 0, i64 32, i1 false)
  ret void
}